; Function Attrs: nounwind uwtable
define internal i32 @filter_frame(ptr noundef readonly captures(none) %0, ptr noundef %1) #0 {
  %3 = getelementptr inbounds nuw i8, ptr %0, i64 16
  %4 = load ptr, ptr %3, align 8, !tbaa !22
  %5 = getelementptr inbounds nuw i8, ptr %4, i64 72
  %6 = load ptr, ptr %5, align 8, !tbaa !31
  %7 = getelementptr inbounds nuw i8, ptr %6, i64 144
  %8 = load ptr, ptr %7, align 8, !tbaa !32
  tail call void %8(ptr noundef %6, ptr noundef %1) #8
  %9 = load ptr, ptr %3, align 8, !tbaa !22
  %10 = getelementptr inbounds nuw i8, ptr %9, i64 56
  %11 = load ptr, ptr %10, align 8, !tbaa !34
  %12 = load ptr, ptr %11, align 8, !tbaa !20
  %13 = tail call i32 @ff_filter_frame(ptr noundef %12, ptr noundef %1) #8
  ret i32 %13
}